; Function Attrs: mustprogress nounwind uwtable
define internal fastcc noundef zeroext i1 @_ZN5clang6format12_GLOBAL__N_116AnnotatingParser22parseUntouchableParensEv(ptr noundef nonnull align 8 dereferenceable(1524) %0) unnamed_addr #0 align 2 {
  %2 = getelementptr inbounds nuw i8, ptr %0, i64 480
  %3 = load ptr, ptr %2, align 8
  %.not3 = icmp eq ptr %3, null
  br i1 %.not3, label %.loopexit, label %.lr.ph

.lr.ph:                                           ; preds = %1, %.lr.ph.backedge
  %4 = phi ptr [ %.be, %.lr.ph.backedge ], [ %3, %1 ]
  %5 = getelementptr inbounds nuw i8, ptr %4, i64 65
  %6 = load i16, ptr %5, align 1
  %7 = or i16 %6, 16
  store i16 %7, ptr %5, align 1
  %8 = load ptr, ptr %2, align 8
  %9 = getelementptr inbounds nuw i8, ptr %8, i64 16
  %10 = load i16, ptr %9, align 8
  tail call fastcc void @_ZN5clang6format12_GLOBAL__N_116AnnotatingParser4nextEv(ptr noundef nonnull align 8 dereferenceable(1524) %0)
  switch i16 %10, label %.backedge [
    i16 22, label %11
    i16 23, label %.loopexit
  ]

11:                                               ; preds = %.lr.ph
  %12 = tail call fastcc noundef zeroext i1 @_ZN5clang6format12_GLOBAL__N_116AnnotatingParser22parseUntouchableParensEv(ptr noundef nonnull align 8 dereferenceable(1524) %0)
  %13 = load ptr, ptr %2, align 8
  %.not = icmp ne ptr %13, null
  %or.cond.not = select i1 %12, i1 %.not, i1 false
  br i1 %or.cond.not, label %.lr.ph.backedge, label %.loopexit

.backedge:                                        ; preds = %.lr.ph
  %.old = load ptr, ptr %2, align 8
  %.not.old = icmp eq ptr %.old, null
  br i1 %.not.old, label %.loopexit, label %.lr.ph.backedge

.lr.ph.backedge:                                  ; preds = %.backedge, %11
  %.be = phi ptr [ %.old, %.backedge ], [ %13, %11 ]
  br label %.lr.ph, !llvm.loop !99

.loopexit:                                        ; preds = %11, %.backedge, %.lr.ph, %1
  %.0 = phi i1 [ false, %1 ], [ true, %.lr.ph ], [ false, %.backedge ], [ false, %11 ]
  ret i1 %.0
}